; ModuleID = 'source-C-CXX/59/1341.c'
source_filename = "source-C-CXX/59/1341.c"
target datalayout = "e-m:e-p270:32:32-p271:32:32-p272:64:64-i64:64-f80:128-n8:16:32:64-S128"
target triple = "x86_64-pc-linux-gnu"

@.str = private unnamed_addr constant [3 x i8] c"%d\00", align 1
@.str.1 = private unnamed_addr constant [7 x i8] c"%d %d\0A\00", align 1
@.str.2 = private unnamed_addr constant [6 x i8] c"empty\00", align 1

; Function Attrs: nofree nounwind sspstrong uwtable
define dso_local i32 @main() local_unnamed_addr #0 {
  %1 = alloca i32, align 4
  %2 = bitcast i32* %1 to i8*
  call void @llvm.lifetime.start.p0i8(i64 4, i8* nonnull %2) #3
  %3 = call i32 (i8*, ...) @__isoc99_scanf(i8* getelementptr inbounds ([3 x i8], [3 x i8]* @.str, i64 0, i64 0), i32* nonnull %1)
  %4 = load i32, i32* %1, align 4, !tbaa !5
  %5 = icmp slt i32 %4, 4
  br i1 %5, label %44, label %6

6:                                                ; preds = %0, %37
  %7 = phi i32 [ %38, %37 ], [ %4, %0 ]
  %8 = phi i32 [ %40, %37 ], [ 4, %0 ]
  %9 = phi i32 [ %39, %37 ], [ 2, %0 ]
  %10 = icmp ult i32 %9, 4
  br i1 %10, label %22, label %11

11:                                               ; preds = %6, %11
  %12 = phi i32 [ %16, %11 ], [ 0, %6 ]
  %13 = phi i32 [ %17, %11 ], [ 2, %6 ]
  %14 = urem i32 %9, %13
  %15 = icmp eq i32 %14, 0
  %16 = select i1 %15, i32 1, i32 %12
  %17 = add nuw nsw i32 %13, 1
  %18 = mul nsw i32 %17, %17
  %19 = icmp ugt i32 %18, %9
  br i1 %19, label %20, label %11, !llvm.loop !9

20:                                               ; preds = %11
  %21 = icmp eq i32 %16, 0
  br i1 %21, label %22, label %37

22:                                               ; preds = %6, %20
  br label %23

23:                                               ; preds = %22, %23
  %24 = phi i32 [ %28, %23 ], [ 0, %22 ]
  %25 = phi i32 [ %29, %23 ], [ 2, %22 ]
  %26 = urem i32 %8, %25
  %27 = icmp eq i32 %26, 0
  %28 = select i1 %27, i32 1, i32 %24
  %29 = add nuw nsw i32 %25, 1
  %30 = mul nsw i32 %29, %29
  %31 = icmp ugt i32 %30, %8
  br i1 %31, label %32, label %23, !llvm.loop !11

32:                                               ; preds = %23
  %33 = icmp eq i32 %28, 0
  br i1 %33, label %34, label %37

34:                                               ; preds = %32
  %35 = call i32 (i8*, ...) @printf(i8* nonnull dereferenceable(1) getelementptr inbounds ([7 x i8], [7 x i8]* @.str.1, i64 0, i64 0), i32 %9, i32 %8)
  %36 = load i32, i32* %1, align 4, !tbaa !5
  br label %37

37:                                               ; preds = %20, %32, %34
  %38 = phi i32 [ %7, %20 ], [ %7, %32 ], [ %36, %34 ]
  %39 = add nuw nsw i32 %9, 1
  %40 = add nuw nsw i32 %8, 1
  %41 = icmp slt i32 %8, %38
  br i1 %41, label %6, label %42, !llvm.loop !12

42:                                               ; preds = %37
  %43 = icmp slt i32 %38, 5
  br i1 %43, label %44, label %46

44:                                               ; preds = %0, %42
  %45 = call i32 (i8*, ...) @printf(i8* nonnull dereferenceable(1) getelementptr inbounds ([6 x i8], [6 x i8]* @.str.2, i64 0, i64 0))
  br label %46

46:                                               ; preds = %44, %42
  call void @llvm.lifetime.end.p0i8(i64 4, i8* nonnull %2) #3
  ret i32 0
}

; Function Attrs: argmemonly mustprogress nofree nosync nounwind willreturn
declare void @llvm.lifetime.start.p0i8(i64 immarg, i8* nocapture) #1

; Function Attrs: nofree nounwind
declare noundef i32 @__isoc99_scanf(i8* nocapture noundef readonly, ...) local_unnamed_addr #2

; Function Attrs: nofree nounwind
declare noundef i32 @printf(i8* nocapture noundef readonly, ...) local_unnamed_addr #2

; Function Attrs: argmemonly mustprogress nofree nosync nounwind willreturn
declare void @llvm.lifetime.end.p0i8(i64 immarg, i8* nocapture) #1


!llvm.module.flags = !{!0, !1, !2, !3}
!llvm.ident = !{!4}

!0 = !{i32 1, !"wchar_size", i32 4}
!1 = !{i32 7, !"PIC Level", i32 2}
!2 = !{i32 7, !"PIE Level", i32 2}
!3 = !{i32 7, !"uwtable", i32 1}
!4 = !{!"clang version 13.0.0"}
!5 = !{!6, !6, i64 0}
!6 = !{!"int", !7, i64 0}
!7 = !{!"omnipotent char", !8, i64 0}
!8 = !{!"Simple C/C++ TBAA"}
!9 = distinct !{!9, !10}
!10 = !{!"llvm.loop.mustprogress"}
!11 = distinct !{!11, !10}
!12 = distinct !{!12, !10}
